target datalayout = "e-m:e-p270:32:32-p271:32:32-p272:64:64-i64:64-i128:128-f80:128-n8:16:32:64-S128"
target triple = "x86_64-pc-linux-gnu"

%struct.lua_State = type { %struct.GCRef, i8, i8, i8, i8, %struct.MRef, %struct.GCRef, ptr, ptr, %struct.MRef, %struct.MRef, %struct.GCRef, %struct.GCRef, ptr, i32 }
%struct.MRef = type { i64 }
%struct.GCRef = type { i64 }
%union.TValue = type { i64 }
%struct.GCproto = type { %struct.GCRef, i8, i8, i8, i8, i32, i32, %struct.GCRef, %struct.MRef, %struct.MRef, i32, i32, i32, i8, i8, i16, %struct.GCRef, i32, i32, %struct.MRef, %struct.MRef, %struct.MRef }
%struct.GCfuncC = type { %struct.GCRef, i8, i8, i8, i8, %struct.GCRef, %struct.GCRef, %struct.MRef, ptr, [1 x %union.TValue] }
%struct.GCfuncL = type { %struct.GCRef, i8, i8, i8, i8, %struct.GCRef, %struct.GCRef, %struct.MRef, [1 x %struct.GCRef] }
%struct.GCtrace = type { %struct.GCRef, i8, i8, i16, i32, i32, %struct.GCRef, ptr, i32, i32, ptr, ptr, %struct.GCRef, %struct.MRef, i32, i32, ptr, i32, i16, i16, i16, i16, i16, i16, i16, i8, i8, i8, i8 }

; Function Attrs: alwaysinline nounwind uwtable
define internal i32 @bc_isret(i32 noundef %0) #4 {
  %2 = alloca i32, align 4
  store i32 %0, ptr %2, align 4, !tbaa !9
  %3 = load i32, ptr %2, align 4, !tbaa !9
  %4 = icmp eq i32 %3, 73
  br i1 %4, label %14, label %5

5:                                                ; preds = %1
  %6 = load i32, ptr %2, align 4, !tbaa !9
  %7 = icmp eq i32 %6, 74
  br i1 %7, label %14, label %8

8:                                                ; preds = %5
  %9 = load i32, ptr %2, align 4, !tbaa !9
  %10 = icmp eq i32 %9, 75
  br i1 %10, label %14, label %11

11:                                               ; preds = %8
  %12 = load i32, ptr %2, align 4, !tbaa !9
  %13 = icmp eq i32 %12, 76
  br label %14

14:                                               ; preds = %11, %8, %5, %1
  %15 = phi i1 [ true, %8 ], [ true, %5 ], [ true, %1 ], [ %13, %11 ]
  %16 = zext i1 %15 to i32
  ret i32 %16
}

; Function Attrs: nounwind uwtable
define internal i32 @debug_framepc(ptr noundef %0, ptr noundef %1, ptr noundef %2) #0 {
  %4 = alloca i32, align 4
  %5 = alloca ptr, align 8
  %6 = alloca ptr, align 8
  %7 = alloca ptr, align 8
  %8 = alloca ptr, align 8
  %9 = alloca ptr, align 8
  %10 = alloca i32, align 4
  %11 = alloca i32, align 4
  %12 = alloca ptr, align 8
  %13 = alloca ptr, align 8
  %14 = alloca ptr, align 8
  %15 = alloca ptr, align 8
  store ptr %0, ptr %5, align 8, !tbaa !4
  store ptr %1, ptr %6, align 8, !tbaa !42
  store ptr %2, ptr %7, align 8, !tbaa !19
  call void @llvm.lifetime.start.p0(i64 8, ptr %8) #8
  call void @llvm.lifetime.start.p0(i64 8, ptr %9) #8
  call void @llvm.lifetime.start.p0(i64 4, ptr %10) #8
  %16 = load ptr, ptr %6, align 8, !tbaa !42
  %17 = getelementptr inbounds nuw %struct.GCfuncC, ptr %16, i32 0, i32 3
  %18 = load i8, ptr %17, align 2, !tbaa !21
  %19 = zext i8 %18 to i32
  %20 = icmp eq i32 %19, 0
  br i1 %20, label %22, label %21

21:                                               ; preds = %3
  store i32 -1, ptr %4, align 4
  store i32 1, ptr %11, align 4
  br label %243

22:                                               ; preds = %3
  %23 = load ptr, ptr %7, align 8, !tbaa !19
  %24 = icmp eq ptr %23, null
  br i1 %24, label %25, label %60

25:                                               ; preds = %22
  call void @llvm.lifetime.start.p0(i64 8, ptr %12) #8
  %26 = load ptr, ptr %5, align 8, !tbaa !4
  %27 = getelementptr inbounds nuw %struct.lua_State, ptr %26, i32 0, i32 13
  %28 = load ptr, ptr %27, align 8, !tbaa !56
  %29 = ptrtoint ptr %28 to i64
  %30 = and i64 %29, -4
  %31 = inttoptr i64 %30 to ptr
  store ptr %31, ptr %12, align 8, !tbaa !29
  %32 = load ptr, ptr %12, align 8, !tbaa !29
  %33 = icmp eq ptr %32, null
  br i1 %33, label %46, label %34

34:                                               ; preds = %25
  %35 = load ptr, ptr %12, align 8, !tbaa !29
  %36 = getelementptr inbounds i8, ptr %35, i64 24
  %37 = getelementptr inbounds nuw %struct.MRef, ptr %36, i32 0, i32 0
  %38 = load i64, ptr %37, align 8, !tbaa !57
  %39 = inttoptr i64 %38 to ptr
  %40 = load ptr, ptr %12, align 8, !tbaa !29
  %41 = getelementptr inbounds i8, ptr %40, i64 16
  %42 = getelementptr inbounds nuw %struct.GCRef, ptr %41, i32 0, i32 0
  %43 = load i64, ptr %42, align 8, !tbaa !50
  %44 = inttoptr i64 %43 to ptr
  %45 = icmp eq ptr %39, %44
  br i1 %45, label %46, label %47

46:                                               ; preds = %34, %25
  store i32 -1, ptr %4, align 4
  store i32 1, ptr %11, align 4
  br label %57

47:                                               ; preds = %34
  %48 = load ptr, ptr %12, align 8, !tbaa !29
  %49 = getelementptr inbounds i8, ptr %48, i64 24
  %50 = getelementptr inbounds nuw %struct.MRef, ptr %49, i32 0, i32 0
  %51 = load i64, ptr %50, align 8, !tbaa !57
  %52 = inttoptr i64 %51 to ptr
  store ptr %52, ptr %8, align 8, !tbaa !11
  %53 = load ptr, ptr %8, align 8, !tbaa !11
  %54 = icmp ne ptr %53, null
  br i1 %54, label %56, label %55

55:                                               ; preds = %47
  store i32 -1, ptr %4, align 4
  store i32 1, ptr %11, align 4
  br label %57

56:                                               ; preds = %47
  store i32 0, ptr %11, align 4
  br label %57

57:                                               ; preds = %56, %55, %46
  call void @llvm.lifetime.end.p0(i64 8, ptr %12) #8
  %58 = load i32, ptr %11, align 4
  switch i32 %58, label %243 [
    i32 0, label %59
  ]

59:                                               ; preds = %57
  br label %194

60:                                               ; preds = %22
  %61 = load ptr, ptr %7, align 8, !tbaa !19
  %62 = load i64, ptr %61, align 8, !tbaa !21
  %63 = and i64 %62, 3
  %64 = icmp eq i64 %63, 0
  br i1 %64, label %65, label %69

65:                                               ; preds = %60
  %66 = load ptr, ptr %7, align 8, !tbaa !19
  %67 = load i64, ptr %66, align 8, !tbaa !21
  %68 = inttoptr i64 %67 to ptr
  store ptr %68, ptr %8, align 8, !tbaa !11
  br label %193

69:                                               ; preds = %60
  %70 = load ptr, ptr %7, align 8, !tbaa !19
  %71 = load i64, ptr %70, align 8, !tbaa !21
  %72 = and i64 %71, 7
  %73 = icmp eq i64 %72, 2
  br i1 %73, label %74, label %79

74:                                               ; preds = %69
  %75 = load ptr, ptr %7, align 8, !tbaa !19
  %76 = getelementptr inbounds %union.TValue, ptr %75, i64 -2
  %77 = load i64, ptr %76, align 8, !tbaa !21
  %78 = inttoptr i64 %77 to ptr
  store ptr %78, ptr %8, align 8, !tbaa !11
  br label %192

79:                                               ; preds = %69
  call void @llvm.lifetime.start.p0(i64 8, ptr %13) #8
  %80 = load ptr, ptr %5, align 8, !tbaa !4
  %81 = getelementptr inbounds nuw %struct.lua_State, ptr %80, i32 0, i32 13
  %82 = load ptr, ptr %81, align 8, !tbaa !56
  %83 = ptrtoint ptr %82 to i64
  %84 = and i64 %83, -4
  %85 = inttoptr i64 %84 to ptr
  store ptr %85, ptr %13, align 8, !tbaa !29
  call void @llvm.lifetime.start.p0(i64 8, ptr %14) #8
  %86 = load ptr, ptr %5, align 8, !tbaa !4
  %87 = getelementptr inbounds nuw %struct.lua_State, ptr %86, i32 0, i32 7
  %88 = load ptr, ptr %87, align 8, !tbaa !20
  %89 = getelementptr inbounds %union.TValue, ptr %88, i64 -1
  store ptr %89, ptr %14, align 8, !tbaa !19
  br label %90

90:                                               ; preds = %178, %79
  %91 = load ptr, ptr %13, align 8, !tbaa !29
  %92 = icmp eq ptr %91, null
  br i1 %92, label %93, label %94

93:                                               ; preds = %90
  store i32 -1, ptr %4, align 4
  store i32 1, ptr %11, align 4
  br label %189

94:                                               ; preds = %90
  br label %95

95:                                               ; preds = %125, %94
  %96 = load ptr, ptr %13, align 8, !tbaa !29
  %97 = getelementptr inbounds i8, ptr %96, i64 8
  %98 = load i32, ptr %97, align 4, !tbaa !9
  %99 = icmp slt i32 %98, 0
  br i1 %99, label %100, label %126

100:                                              ; preds = %95
  %101 = load ptr, ptr %14, align 8, !tbaa !19
  %102 = load ptr, ptr %5, align 8, !tbaa !4
  %103 = getelementptr inbounds nuw %struct.lua_State, ptr %102, i32 0, i32 10
  %104 = getelementptr inbounds nuw %struct.MRef, ptr %103, i32 0, i32 0
  %105 = load i64, ptr %104, align 8, !tbaa !13
  %106 = inttoptr i64 %105 to ptr
  %107 = load ptr, ptr %13, align 8, !tbaa !29
  %108 = getelementptr inbounds i8, ptr %107, i64 8
  %109 = load i32, ptr %108, align 4, !tbaa !9
  %110 = sub nsw i32 0, %109
  %111 = sext i32 %110 to i64
  %112 = getelementptr inbounds i8, ptr %106, i64 %111
  %113 = icmp uge ptr %101, %112
  br i1 %113, label %114, label %115

114:                                              ; preds = %100
  br label %126

115:                                              ; preds = %100
  %116 = load ptr, ptr %13, align 8, !tbaa !29
  %117 = getelementptr inbounds i8, ptr %116, i64 32
  %118 = load ptr, ptr %117, align 8, !tbaa !29
  %119 = ptrtoint ptr %118 to i64
  %120 = and i64 %119, -4
  %121 = inttoptr i64 %120 to ptr
  store ptr %121, ptr %13, align 8, !tbaa !29
  %122 = load ptr, ptr %13, align 8, !tbaa !29
  %123 = icmp eq ptr %122, null
  br i1 %123, label %124, label %125

124:                                              ; preds = %115
  store i32 -1, ptr %4, align 4
  store i32 1, ptr %11, align 4
  br label %189

125:                                              ; preds = %115
  br label %95, !llvm.loop !58

126:                                              ; preds = %114, %95
  %127 = load ptr, ptr %14, align 8, !tbaa !19
  %128 = load ptr, ptr %7, align 8, !tbaa !19
  %129 = icmp ult ptr %127, %128
  br i1 %129, label %130, label %131

130:                                              ; preds = %126
  br label %179

131:                                              ; preds = %126
  %132 = load ptr, ptr %14, align 8, !tbaa !19
  %133 = load i64, ptr %132, align 8, !tbaa !21
  %134 = and i64 %133, 3
  %135 = icmp eq i64 %134, 0
  br i1 %135, label %136, label %149

136:                                              ; preds = %131
  %137 = load ptr, ptr %14, align 8, !tbaa !19
  %138 = load ptr, ptr %14, align 8, !tbaa !19
  %139 = load i64, ptr %138, align 8, !tbaa !21
  %140 = inttoptr i64 %139 to ptr
  %141 = getelementptr inbounds i32, ptr %140, i64 -1
  %142 = load i32, ptr %141, align 4, !tbaa !9
  %143 = lshr i32 %142, 8
  %144 = and i32 %143, 255
  %145 = add i32 2, %144
  %146 = zext i32 %145 to i64
  %147 = sub i64 0, %146
  %148 = getelementptr inbounds %union.TValue, ptr %137, i64 %147
  store ptr %148, ptr %14, align 8, !tbaa !19
  br label %178

149:                                              ; preds = %131
  %150 = load ptr, ptr %14, align 8, !tbaa !19
  %151 = load i64, ptr %150, align 8, !tbaa !21
  %152 = and i64 %151, 3
  %153 = icmp eq i64 %152, 1
  br i1 %153, label %164, label %154

154:                                              ; preds = %149
  %155 = load ptr, ptr %14, align 8, !tbaa !19
  %156 = load i64, ptr %155, align 8, !tbaa !21
  %157 = and i64 %156, 7
  %158 = icmp eq i64 %157, 2
  br i1 %158, label %159, label %171

159:                                              ; preds = %154
  %160 = load ptr, ptr %14, align 8, !tbaa !19
  %161 = getelementptr inbounds %union.TValue, ptr %160, i64 -3
  %162 = load i64, ptr %161, align 8, !tbaa !21
  %163 = icmp eq i64 %162, 1
  br i1 %163, label %164, label %171

164:                                              ; preds = %159, %149
  %165 = load ptr, ptr %13, align 8, !tbaa !29
  %166 = getelementptr inbounds i8, ptr %165, i64 32
  %167 = load ptr, ptr %166, align 8, !tbaa !29
  %168 = ptrtoint ptr %167 to i64
  %169 = and i64 %168, -4
  %170 = inttoptr i64 %169 to ptr
  store ptr %170, ptr %13, align 8, !tbaa !29
  br label %171

171:                                              ; preds = %164, %159, %154
  %172 = load ptr, ptr %14, align 8, !tbaa !19
  %173 = load ptr, ptr %14, align 8, !tbaa !19
  %174 = load i64, ptr %173, align 8, !tbaa !21
  %175 = and i64 %174, -8
  %176 = sub i64 0, %175
  %177 = getelementptr inbounds i8, ptr %172, i64 %176
  store ptr %177, ptr %14, align 8, !tbaa !19
  br label %178

178:                                              ; preds = %171, %136
  br label %90

179:                                              ; preds = %130
  %180 = load ptr, ptr %13, align 8, !tbaa !29
  %181 = getelementptr inbounds i8, ptr %180, i64 24
  %182 = getelementptr inbounds nuw %struct.MRef, ptr %181, i32 0, i32 0
  %183 = load i64, ptr %182, align 8, !tbaa !57
  %184 = inttoptr i64 %183 to ptr
  store ptr %184, ptr %8, align 8, !tbaa !11
  %185 = load ptr, ptr %8, align 8, !tbaa !11
  %186 = icmp ne ptr %185, null
  br i1 %186, label %188, label %187

187:                                              ; preds = %179
  store i32 -1, ptr %4, align 4
  store i32 1, ptr %11, align 4
  br label %189

188:                                              ; preds = %179
  store i32 0, ptr %11, align 4
  br label %189

189:                                              ; preds = %188, %187, %124, %93
  call void @llvm.lifetime.end.p0(i64 8, ptr %14) #8
  call void @llvm.lifetime.end.p0(i64 8, ptr %13) #8
  %190 = load i32, ptr %11, align 4
  switch i32 %190, label %243 [
    i32 0, label %191
  ]

191:                                              ; preds = %189
  br label %192

192:                                              ; preds = %191, %74
  br label %193

193:                                              ; preds = %192, %65
  br label %194

194:                                              ; preds = %193, %59
  br label %195

195:                                              ; preds = %194
  %196 = load ptr, ptr %6, align 8, !tbaa !42
  %197 = getelementptr inbounds nuw %struct.GCfuncL, ptr %196, i32 0, i32 7
  %198 = getelementptr inbounds nuw %struct.MRef, ptr %197, i32 0, i32 0
  %199 = load i64, ptr %198, align 8, !tbaa !21
  %200 = inttoptr i64 %199 to ptr
  %201 = getelementptr inbounds i8, ptr %200, i64 -104
  store ptr %201, ptr %9, align 8, !tbaa !24
  %202 = load ptr, ptr %8, align 8, !tbaa !11
  %203 = load ptr, ptr %9, align 8, !tbaa !24
  %204 = getelementptr inbounds nuw i8, ptr %203, i64 104
  %205 = ptrtoint ptr %202 to i64
  %206 = ptrtoint ptr %204 to i64
  %207 = sub i64 %205, %206
  %208 = sdiv exact i64 %207, 4
  %209 = trunc i64 %208 to i32
  %210 = sub i32 %209, 1
  store i32 %210, ptr %10, align 4, !tbaa !9
  %211 = load i32, ptr %10, align 4, !tbaa !9
  %212 = load ptr, ptr %9, align 8, !tbaa !24
  %213 = getelementptr inbounds nuw %struct.GCproto, ptr %212, i32 0, i32 5
  %214 = load i32, ptr %213, align 4, !tbaa !30
  %215 = icmp ugt i32 %211, %214
  br i1 %215, label %216, label %241

216:                                              ; preds = %195
  %217 = load ptr, ptr %8, align 8, !tbaa !11
  %218 = getelementptr inbounds i32, ptr %217, i64 -1
  %219 = load i32, ptr %218, align 4, !tbaa !9
  %220 = and i32 %219, 255
  %221 = call i32 @bc_isret(i32 noundef %220)
  %222 = icmp ne i32 %221, 0
  br i1 %222, label %223, label %239

223:                                              ; preds = %216
  call void @llvm.lifetime.start.p0(i64 8, ptr %15) #8
  %224 = load ptr, ptr %8, align 8, !tbaa !11
  %225 = getelementptr inbounds i32, ptr %224, i64 -1
  %226 = getelementptr inbounds i8, ptr %225, i64 -80
  store ptr %226, ptr %15, align 8, !tbaa !59
  %227 = load ptr, ptr %15, align 8, !tbaa !59
  %228 = getelementptr inbounds nuw %struct.GCtrace, ptr %227, i32 0, i32 13
  %229 = getelementptr inbounds nuw %struct.MRef, ptr %228, i32 0, i32 0
  %230 = load i64, ptr %229, align 8, !tbaa !61
  %231 = inttoptr i64 %230 to ptr
  %232 = load ptr, ptr %9, align 8, !tbaa !24
  %233 = getelementptr inbounds nuw i8, ptr %232, i64 104
  %234 = ptrtoint ptr %231 to i64
  %235 = ptrtoint ptr %233 to i64
  %236 = sub i64 %234, %235
  %237 = sdiv exact i64 %236, 4
  %238 = trunc i64 %237 to i32
  store i32 %238, ptr %10, align 4, !tbaa !9
  call void @llvm.lifetime.end.p0(i64 8, ptr %15) #8
  br label %240

239:                                              ; preds = %216
  store i32 -1, ptr %10, align 4, !tbaa !9
  br label %240

240:                                              ; preds = %239, %223
  br label %241

241:                                              ; preds = %240, %195
  %242 = load i32, ptr %10, align 4, !tbaa !9
  store i32 %242, ptr %4, align 4
  store i32 1, ptr %11, align 4
  br label %243

243:                                              ; preds = %241, %189, %57, %21
  call void @llvm.lifetime.end.p0(i64 4, ptr %10) #8
  call void @llvm.lifetime.end.p0(i64 8, ptr %9) #8
  call void @llvm.lifetime.end.p0(i64 8, ptr %8) #8
  %244 = load i32, ptr %4, align 4
  ret i32 %244
}