; Function Attrs: nofree norecurse nosync nounwind memory(read, inaccessiblemem: none) uwtable
define internal fastcc i32 @debug_framepc(ptr noundef readonly captures(none) %0, ptr noundef readonly captures(none) %1, ptr noundef readonly captures(address) %2) unnamed_addr #3 {
  %4 = getelementptr inbounds nuw i8, ptr %1, i64 10
  %5 = load i8, ptr %4, align 2, !tbaa !15
  %6 = icmp eq i8 %5, 0
  br i1 %6, label %7, label %.thread

7:                                                ; preds = %3
  %8 = icmp eq ptr %2, null
  br i1 %8, label %9, label %22

9:                                                ; preds = %7
  %10 = getelementptr inbounds nuw i8, ptr %0, i64 80
  %11 = load ptr, ptr %10, align 8, !tbaa !42
  %12 = ptrtoint ptr %11 to i64
  %13 = and i64 %12, -4
  %14 = icmp eq i64 %13, 0
  br i1 %14, label %.thread, label %15

15:                                               ; preds = %9
  %16 = inttoptr i64 %13 to ptr
  %17 = getelementptr inbounds nuw i8, ptr %16, i64 24
  %18 = load i64, ptr %17, align 8, !tbaa !43
  %19 = getelementptr inbounds nuw i8, ptr %16, i64 16
  %20 = load i64, ptr %19, align 8, !tbaa !40
  %21 = icmp ne i64 %18, %20
  %.not67 = icmp ne i64 %18, 0
  %or.cond = and i1 %.not67, %21
  br i1 %or.cond, label %97, label %.thread

22:                                               ; preds = %7
  %23 = load i64, ptr %2, align 8, !tbaa !15
  %24 = and i64 %23, 3
  %25 = icmp eq i64 %24, 0
  br i1 %25, label %97, label %26

26:                                               ; preds = %22
  %27 = and i64 %23, 7
  %28 = icmp eq i64 %27, 2
  br i1 %28, label %29, label %32

29:                                               ; preds = %26
  %30 = getelementptr inbounds i8, ptr %2, i64 -16
  %31 = load i64, ptr %30, align 8, !tbaa !15
  br label %97

32:                                               ; preds = %26
  %33 = getelementptr inbounds nuw i8, ptr %0, i64 80
  %34 = load ptr, ptr %33, align 8, !tbaa !42
  %35 = ptrtoint ptr %34 to i64
  %36 = and i64 %35, -4
  %37 = icmp eq i64 %36, 0
  br i1 %37, label %.thread, label %.preheader.lr.ph

.preheader.lr.ph:                                 ; preds = %32
  %38 = inttoptr i64 %36 to ptr
  %39 = getelementptr inbounds nuw i8, ptr %0, i64 32
  %40 = load ptr, ptr %39, align 8, !tbaa !14
  %41 = getelementptr inbounds i8, ptr %40, i64 -8
  %42 = getelementptr inbounds nuw i8, ptr %0, i64 56
  br label %.preheader

.preheader:                                       ; preds = %.preheader.lr.ph, %92
  %.04780 = phi ptr [ %41, %.preheader.lr.ph ], [ %.148, %92 ]
  %.04979 = phi ptr [ %38, %.preheader.lr.ph ], [ %.251, %92 ]
  br label %43

43:                                               ; preds = %.preheader, %53
  %.150 = phi ptr [ %58, %53 ], [ %.04979, %.preheader ]
  %44 = getelementptr inbounds nuw i8, ptr %.150, i64 8
  %45 = load i32, ptr %44, align 4, !tbaa !18
  %46 = icmp slt i32 %45, 0
  br i1 %46, label %47, label %60

47:                                               ; preds = %43
  %48 = load i64, ptr %42, align 8, !tbaa !4
  %49 = inttoptr i64 %48 to ptr
  %50 = sub nsw i32 0, %45
  %51 = zext nneg i32 %50 to i64
  %52 = getelementptr inbounds nuw i8, ptr %49, i64 %51
  %.not = icmp ult ptr %.04780, %52
  br i1 %.not, label %53, label %60

53:                                               ; preds = %47
  %54 = getelementptr inbounds nuw i8, ptr %.150, i64 32
  %55 = load ptr, ptr %54, align 8, !tbaa !44
  %56 = ptrtoint ptr %55 to i64
  %57 = and i64 %56, -4
  %58 = inttoptr i64 %57 to ptr
  %59 = icmp eq i64 %57, 0
  br i1 %59, label %.thread, label %43, !llvm.loop !45

60:                                               ; preds = %47, %43
  %61 = icmp ult ptr %.04780, %2
  br i1 %61, label %94, label %62

62:                                               ; preds = %60
  %63 = load i64, ptr %.04780, align 8, !tbaa !15
  %64 = and i64 %63, 3
  switch i64 %64, label %75 [
    i64 0, label %65
    i64 1, label %82
  ]

65:                                               ; preds = %62
  %66 = inttoptr i64 %63 to ptr
  %67 = getelementptr inbounds i8, ptr %66, i64 -4
  %68 = load i32, ptr %67, align 4, !tbaa !18
  %69 = lshr i32 %68, 8
  %70 = and i32 %69, 255
  %71 = add nuw nsw i32 %70, 2
  %72 = zext nneg i32 %71 to i64
  %73 = sub nsw i64 0, %72
  %74 = getelementptr inbounds %union.TValue, ptr %.04780, i64 %73
  br label %92

75:                                               ; preds = %62
  %76 = and i64 %63, 7
  %77 = icmp eq i64 %76, 2
  br i1 %77, label %78, label %88

78:                                               ; preds = %75
  %79 = getelementptr inbounds i8, ptr %.04780, i64 -24
  %80 = load i64, ptr %79, align 8, !tbaa !15
  %81 = icmp eq i64 %80, 1
  br i1 %81, label %82, label %88

82:                                               ; preds = %62, %78
  %83 = getelementptr inbounds nuw i8, ptr %.150, i64 32
  %84 = load ptr, ptr %83, align 8, !tbaa !44
  %85 = ptrtoint ptr %84 to i64
  %86 = and i64 %85, -4
  %87 = inttoptr i64 %86 to ptr
  br label %88

88:                                               ; preds = %82, %78, %75
  %.3 = phi ptr [ %87, %82 ], [ %.150, %78 ], [ %.150, %75 ]
  %89 = and i64 %63, -8
  %90 = sub i64 0, %89
  %91 = getelementptr inbounds i8, ptr %.04780, i64 %90
  br label %92

92:                                               ; preds = %88, %65
  %.251 = phi ptr [ %.150, %65 ], [ %.3, %88 ]
  %.148 = phi ptr [ %74, %65 ], [ %91, %88 ]
  %93 = icmp eq ptr %.251, null
  br i1 %93, label %.thread, label %.preheader

94:                                               ; preds = %60
  %95 = getelementptr inbounds nuw i8, ptr %.150, i64 24
  %96 = load i64, ptr %95, align 8, !tbaa !43
  %.not66.not = icmp eq i64 %96, 0
  br i1 %.not66.not, label %.thread, label %97

97:                                               ; preds = %22, %15, %29, %94
  %.254.in = phi i64 [ %31, %29 ], [ %96, %94 ], [ %18, %15 ], [ %23, %22 ]
  %.254 = inttoptr i64 %.254.in to ptr
  %98 = getelementptr inbounds nuw i8, ptr %1, i64 32
  %99 = load i64, ptr %98, align 8, !tbaa !15
  %100 = inttoptr i64 %99 to ptr
  %101 = sub i64 %.254.in, %99
  %102 = lshr exact i64 %101, 2
  %103 = trunc i64 %102 to i32
  %104 = add i32 %103, -1
  %105 = getelementptr inbounds i8, ptr %100, i64 -92
  %106 = load i32, ptr %105, align 4, !tbaa !22
  %107 = icmp ugt i32 %104, %106
  br i1 %107, label %108, label %.thread

108:                                              ; preds = %97
  %109 = getelementptr inbounds i8, ptr %.254, i64 -4
  %110 = load i32, ptr %109, align 4, !tbaa !18
  %111 = and i32 %110, 255
  %112 = add nsw i32 %111, -77
  %narrow = icmp ult i32 %112, -4
  br i1 %narrow, label %.thread, label %113

113:                                              ; preds = %108
  %114 = getelementptr inbounds i8, ptr %.254, i64 -12
  %115 = load i64, ptr %114, align 8, !tbaa !46
  %116 = sub i64 %115, %99
  %117 = lshr exact i64 %116, 2
  %118 = trunc i64 %117 to i32
  br label %.thread

.thread:                                          ; preds = %92, %53, %32, %9, %15, %97, %113, %108, %3, %94
  %.0 = phi i32 [ -1, %94 ], [ -1, %3 ], [ %118, %113 ], [ %104, %97 ], [ -1, %108 ], [ -1, %15 ], [ -1, %9 ], [ -1, %32 ], [ -1, %53 ], [ -1, %92 ]
  ret i32 %.0
}